; Function Attrs: mustprogress nofree norecurse nosync nounwind memory(argmem: readwrite) uwtable
define internal noundef range(i32 -1, 2) i32 @_ZL11luauF_btestP9lua_StateP10lua_TValueS2_iS2_i(ptr readnone captures(none) %0, ptr noundef writeonly captures(none) %1, ptr noundef readonly captures(none) %2, i32 noundef %3, ptr noundef readonly captures(none) %4, i32 noundef %5) #5 {
  %7 = icmp sgt i32 %5, 1
  %8 = icmp slt i32 %3, 2
  %or.cond = and i1 %8, %7
  br i1 %or.cond, label %9, label %.loopexit

9:                                                ; preds = %6
  %10 = getelementptr inbounds nuw i8, ptr %2, i64 12
  %11 = load i32, ptr %10, align 4, !tbaa !4
  %12 = icmp eq i32 %11, 3
  br i1 %12, label %13, label %.loopexit

13:                                               ; preds = %9
  %14 = getelementptr inbounds nuw i8, ptr %4, i64 12
  %15 = load i32, ptr %14, align 4, !tbaa !4
  %16 = icmp eq i32 %15, 3
  br i1 %16, label %17, label %.loopexit

17:                                               ; preds = %13
  %18 = load double, ptr %2, align 8, !tbaa !9
  %19 = load double, ptr %4, align 8, !tbaa !9
  %20 = fptosi double %18 to i64
  %21 = fptosi double %19 to i64
  %22 = and i64 %21, %20
  %23 = trunc i64 %22 to i32
  %.not30 = icmp samesign ult i32 %5, 3
  br i1 %.not30, label %.critedge, label %.lr.ph.preheader

.lr.ph.preheader:                                 ; preds = %17
  %24 = add nuw i32 %5, 1
  %wide.trip.count = zext i32 %24 to i64
  br label %.lr.ph

.lr.ph:                                           ; preds = %.lr.ph.preheader, %29
  %indvars.iv = phi i64 [ 3, %.lr.ph.preheader ], [ %indvars.iv.next, %29 ]
  %.02632 = phi i32 [ %23, %.lr.ph.preheader ], [ %34, %29 ]
  %25 = getelementptr %struct.lua_TValue, ptr %4, i64 %indvars.iv
  %26 = getelementptr i8, ptr %25, i64 -20
  %27 = load i32, ptr %26, align 4, !tbaa !4
  %28 = icmp eq i32 %27, 3
  br i1 %28, label %29, label %.loopexit

29:                                               ; preds = %.lr.ph
  %30 = getelementptr i8, ptr %25, i64 -32
  %31 = load double, ptr %30, align 8, !tbaa !9
  %32 = fptosi double %31 to i64
  %33 = trunc i64 %32 to i32
  %34 = and i32 %.02632, %33
  %indvars.iv.next = add nuw nsw i64 %indvars.iv, 1
  %exitcond.not = icmp eq i64 %indvars.iv.next, %wide.trip.count
  br i1 %exitcond.not, label %.critedge, label %.lr.ph, !llvm.loop !19

.critedge:                                        ; preds = %29, %17
  %.026.lcssa = phi i32 [ %23, %17 ], [ %34, %29 ]
  %35 = icmp ne i32 %.026.lcssa, 0
  %36 = zext i1 %35 to i32
  store i32 %36, ptr %1, align 8, !tbaa !9
  %37 = getelementptr inbounds nuw i8, ptr %1, i64 12
  store i32 1, ptr %37, align 4, !tbaa !4
  br label %.loopexit

.loopexit:                                        ; preds = %.lr.ph, %6, %9, %13, %.critedge
  %.2 = phi i32 [ 1, %.critedge ], [ -1, %13 ], [ -1, %9 ], [ -1, %6 ], [ -1, %.lr.ph ]
  ret i32 %.2
}